; Function Attrs: mustprogress uwtable
define internal noundef zeroext i1 @_ZN3ozz7options12_GLOBAL__N_123ValidateExclusiveOptionERKNS0_6OptionEi(ptr noundef nonnull readonly align 8 captures(none) dereferenceable(40) %0, i32 noundef %1) #3 {
  %3 = getelementptr inbounds nuw i8, ptr %0, i64 41
  %4 = load i8, ptr %3, align 1, !tbaa !79, !range !73, !noundef !74
  %5 = trunc nuw i8 %4 to i1
  %6 = icmp ne i32 %1, 1
  %or.cond = and i1 %6, %5
  br i1 %or.cond, label %7, label %42

7:                                                ; preds = %2
  %8 = tail call noundef nonnull align 8 dereferenceable(8) ptr @_ZSt16__ostream_insertIcSt11char_traitsIcEERSt13basic_ostreamIT_T0_ES6_PKS3_l(ptr noundef nonnull align 8 dereferenceable(8) @_ZSt4cout, ptr noundef nonnull @.str.45, i64 noundef 8)
  %9 = getelementptr inbounds nuw i8, ptr %0, i64 8
  %10 = load ptr, ptr %9, align 8, !tbaa !4
  %.not.i = icmp eq ptr %10, null
  br i1 %.not.i, label %11, label %19

11:                                               ; preds = %7
  %12 = load ptr, ptr @_ZSt4cout, align 8, !tbaa !18
  %13 = getelementptr i8, ptr %12, i64 -24
  %14 = load i64, ptr %13, align 8
  %15 = getelementptr inbounds i8, ptr @_ZSt4cout, i64 %14
  %16 = getelementptr inbounds nuw i8, ptr %15, i64 32
  %17 = load i32, ptr %16, align 8, !tbaa !31
  %18 = or i32 %17, 1
  tail call void @_ZNSt9basic_iosIcSt11char_traitsIcEE5clearESt12_Ios_Iostate(ptr noundef nonnull align 8 dereferenceable(264) %15, i32 noundef %18)
  br label %_ZStlsISt11char_traitsIcEERSt13basic_ostreamIcT_ES5_PKc.exit

19:                                               ; preds = %7
  %20 = tail call noundef i64 @strlen(ptr noundef nonnull dereferenceable(1) %10) #29
  %21 = tail call noundef nonnull align 8 dereferenceable(8) ptr @_ZSt16__ostream_insertIcSt11char_traitsIcEERSt13basic_ostreamIT_T0_ES6_PKS3_l(ptr noundef nonnull align 8 dereferenceable(8) @_ZSt4cout, ptr noundef nonnull %10, i64 noundef %20)
  br label %_ZStlsISt11char_traitsIcEERSt13basic_ostreamIcT_ES5_PKc.exit

_ZStlsISt11char_traitsIcEERSt13basic_ostreamIcT_ES5_PKc.exit: ; preds = %11, %19
  %22 = tail call noundef nonnull align 8 dereferenceable(8) ptr @_ZSt16__ostream_insertIcSt11char_traitsIcEERSt13basic_ostreamIT_T0_ES6_PKS3_l(ptr noundef nonnull align 8 dereferenceable(8) @_ZSt4cout, ptr noundef nonnull @.str.46, i64 noundef 68)
  %23 = load ptr, ptr @_ZSt4cout, align 8, !tbaa !18
  %24 = getelementptr i8, ptr %23, i64 -24
  %25 = load i64, ptr %24, align 8
  %26 = getelementptr inbounds i8, ptr @_ZSt4cout, i64 %25
  %27 = getelementptr inbounds nuw i8, ptr %26, i64 240
  %28 = load ptr, ptr %27, align 8, !tbaa !41
  %.not.i.i.i = icmp eq ptr %28, null
  br i1 %.not.i.i.i, label %29, label %_ZSt13__check_facetISt5ctypeIcEERKT_PS3_.exit.i.i

29:                                               ; preds = %_ZStlsISt11char_traitsIcEERSt13basic_ostreamIcT_ES5_PKc.exit
  tail call void @_ZSt16__throw_bad_castv() #30
  unreachable

_ZSt13__check_facetISt5ctypeIcEERKT_PS3_.exit.i.i: ; preds = %_ZStlsISt11char_traitsIcEERSt13basic_ostreamIcT_ES5_PKc.exit
  %30 = getelementptr inbounds nuw i8, ptr %28, i64 56
  %31 = load i8, ptr %30, align 8, !tbaa !48
  %.not.i1.i.i = icmp eq i8 %31, 0
  br i1 %.not.i1.i.i, label %35, label %32

32:                                               ; preds = %_ZSt13__check_facetISt5ctypeIcEERKT_PS3_.exit.i.i
  %33 = getelementptr inbounds nuw i8, ptr %28, i64 67
  %34 = load i8, ptr %33, align 1, !tbaa !54
  br label %_ZSt4endlIcSt11char_traitsIcEERSt13basic_ostreamIT_T0_ES6_.exit

35:                                               ; preds = %_ZSt13__check_facetISt5ctypeIcEERKT_PS3_.exit.i.i
  tail call void @_ZNKSt5ctypeIcE13_M_widen_initEv(ptr noundef nonnull align 8 dereferenceable(570) %28)
  %36 = load ptr, ptr %28, align 8, !tbaa !18
  %37 = getelementptr inbounds nuw i8, ptr %36, i64 48
  %38 = load ptr, ptr %37, align 8
  %39 = tail call noundef signext i8 %38(ptr noundef nonnull align 8 dereferenceable(570) %28, i8 noundef signext 10)
  br label %_ZSt4endlIcSt11char_traitsIcEERSt13basic_ostreamIT_T0_ES6_.exit

_ZSt4endlIcSt11char_traitsIcEERSt13basic_ostreamIT_T0_ES6_.exit: ; preds = %32, %35
  %.0.i.i.i = phi i8 [ %34, %32 ], [ %39, %35 ]
  %40 = tail call noundef nonnull align 8 dereferenceable(8) ptr @_ZNSo3putEc(ptr noundef nonnull align 8 dereferenceable(8) @_ZSt4cout, i8 noundef signext %.0.i.i.i)
  %41 = tail call noundef nonnull align 8 dereferenceable(8) ptr @_ZNSo5flushEv(ptr noundef nonnull align 8 dereferenceable(8) %40)
  br label %42

42:                                               ; preds = %2, %_ZSt4endlIcSt11char_traitsIcEERSt13basic_ostreamIT_T0_ES6_.exit
  %.0 = xor i1 %or.cond, true
  ret i1 %.0
}